; Function Attrs: mustprogress uwtable
define hidden void @_ZN5zxing12ErrorHandlerC2ERKS0_(ptr noundef nonnull align 8 dereferenceable(48) initializes((0, 8)) %0, ptr noundef nonnull align 8 dereferenceable(48) %1) unnamed_addr #2 align 2 personality ptr @__gxx_personality_v0 {
  store ptr getelementptr inbounds nuw inrange(-16, 64) (i8, ptr @_ZTVN5zxing12ErrorHandlerE, i64 16), ptr %0, align 8, !tbaa !3
  %3 = getelementptr inbounds nuw i8, ptr %0, i64 16
  %4 = getelementptr inbounds nuw i8, ptr %0, i64 32
  store ptr %4, ptr %3, align 8, !tbaa !15
  %5 = getelementptr inbounds nuw i8, ptr %0, i64 24
  store i64 0, ptr %5, align 8, !tbaa !16
  store i8 0, ptr %4, align 8, !tbaa !17
  %6 = load ptr, ptr %1, align 8, !tbaa !3
  %7 = getelementptr inbounds nuw i8, ptr %6, i64 16
  %8 = load ptr, ptr %7, align 8
  %9 = invoke noundef i32 %8(ptr noundef nonnull align 8 dereferenceable(48) %1)
          to label %10 unwind label %21

10:                                               ; preds = %2
  %11 = getelementptr inbounds nuw i8, ptr %0, i64 12
  store i32 %9, ptr %11, align 4, !tbaa !6
  %12 = load ptr, ptr %1, align 8, !tbaa !3
  %13 = getelementptr inbounds nuw i8, ptr %12, i64 24
  %14 = load ptr, ptr %13, align 8
  %15 = invoke noundef nonnull align 8 dereferenceable(32) ptr %14(ptr noundef nonnull align 8 dereferenceable(48) %1)
          to label %16 unwind label %21

16:                                               ; preds = %10
  invoke void @_ZNSt7__cxx1112basic_stringIcSt11char_traitsIcESaIcEE9_M_assignERKS4_(ptr noundef nonnull align 8 dereferenceable(32) %3, ptr noundef nonnull align 8 dereferenceable(32) %15)
          to label %_ZNSt7__cxx1112basic_stringIcSt11char_traitsIcESaIcEE6assignERKS4_.exit unwind label %21

_ZNSt7__cxx1112basic_stringIcSt11char_traitsIcESaIcEE6assignERKS4_.exit: ; preds = %16
  %17 = load ptr, ptr %0, align 8, !tbaa !3
  %18 = getelementptr inbounds nuw i8, ptr %17, i64 40
  %19 = load ptr, ptr %18, align 8
  invoke void %19(ptr noundef nonnull align 8 dereferenceable(48) %0)
          to label %20 unwind label %21

20:                                               ; preds = %_ZNSt7__cxx1112basic_stringIcSt11char_traitsIcESaIcEE6assignERKS4_.exit
  ret void

21:                                               ; preds = %16, %_ZNSt7__cxx1112basic_stringIcSt11char_traitsIcESaIcEE6assignERKS4_.exit, %10, %2
  %22 = landingpad { ptr, i32 }
          cleanup
  %23 = load ptr, ptr %3, align 8, !tbaa !20
  %24 = icmp eq ptr %23, %4
  br i1 %24, label %_ZNKSt7__cxx1112basic_stringIcSt11char_traitsIcESaIcEE11_M_is_localEv.exit.thread.i.i, label %_ZNKSt7__cxx1112basic_stringIcSt11char_traitsIcESaIcEE11_M_is_localEv.exit.i.i

_ZNKSt7__cxx1112basic_stringIcSt11char_traitsIcESaIcEE11_M_is_localEv.exit.thread.i.i: ; preds = %21
  %25 = load i64, ptr %5, align 8, !tbaa !16
  %26 = icmp ult i64 %25, 16
  tail call void @llvm.assume(i1 %26)
  br label %_ZNSt7__cxx1112basic_stringIcSt11char_traitsIcESaIcEED2Ev.exit

_ZNKSt7__cxx1112basic_stringIcSt11char_traitsIcESaIcEE11_M_is_localEv.exit.i.i: ; preds = %21
  tail call void @_ZdlPv(ptr noundef %23) #16
  br label %_ZNSt7__cxx1112basic_stringIcSt11char_traitsIcESaIcEED2Ev.exit

_ZNSt7__cxx1112basic_stringIcSt11char_traitsIcESaIcEED2Ev.exit: ; preds = %_ZNKSt7__cxx1112basic_stringIcSt11char_traitsIcESaIcEE11_M_is_localEv.exit.thread.i.i, %_ZNKSt7__cxx1112basic_stringIcSt11char_traitsIcESaIcEE11_M_is_localEv.exit.i.i
  resume { ptr, i32 } %22
}